(dp1
S'output'
p2
S'missing "pass" in view'
p3
sS'layer'
p4
S'ParserContainer'
p5
sS'code'
p6
S'response.write(\'<!DOCTYPE html>\\n<html>\\n<head>\\n    <title>Book Sharing App</title>\\n    <meta name="viewport" content="width=device-width, initial-scale=1.0">\\n    <!-- Bootstrap -->\\n    <link rel="stylesheet" href="//netdna.bootstrapcdn.com/bootstrap/3.0.0-rc1/css/bootstrap.min.css">\\n</head>\\n<body>\\n\\n<div class="container">\\n\\n\\n    <div class="panel">\\n        <div class="panel-heading">\\n            <h3 class="panel-title">SJSU Book Sharing App</h3></br>\\n            <input id="search" type="text" class="form-control" placeholder="Search Books">\\n        </div>\\n\\n        <div id = "bookList">\\n            <table class="table table-striped">\\n                <thead>\\n                <tr>\\n                    <th>Book Title</th>\\n                    <th>Email to Contact</th>\\n                </tr>\\n                </thead>\\n                <tbody>\\n                <tr>\\n                    \', escape=False)\nfor row in rows:\n    response.write(\'\\n                        <td>\', escape=False)\n    response.write(row.title)\n    response.write(\'</td>\\n                        \', escape=False)\n    pass\nresponse.write(\'\\n                    <td>test</td>\\n\\n                </tr>\\n                </tbody>\\n            </table>\\n\\n                \', escape=False)\nfor row in rows:\n    response.write(\'\\n                <li class="list-group-item"></li>\\n\\n\\n        </div>\\n    </div>\\n\\n</div>\\n\\n\\n\\n\\n\\n\\n\\n<script>\\n    $(\\\'#search\\\').keyup (function(){\\n\\n        search = $("#search").val();\\n\\n        var dataToBeSentToServer = {"search":search};\\n\\n        $.ajax({\\n            url: \\\'/bookApp/default/searchAjaxRequest\\\',\\n            type: \\\'POST\\\',\\n            data: JSON.stringify(dataToBeSentToServer),\\n            contentType: \\\'application/json; charset=utf-8\\\',\\n            dataType: \\\'json\\\',\\n            async: false\\n        });\\n\\n\\n        web2py_component(\\\'\', escape=False)\n    response.write(URL("default", "ajaxTable.load"))\n    response.write(\'\\\',\\\'table\\\');\\n\\n        $(\\\'#bookList\\\').show("highlight", {}, 2000);\\n\\n    });\\n</script>\\n\\n<!-- JavaScript plugins (requires jQuery) -->\\n<script src="//ajax.googleapis.com/ajax/libs/jquery/1.10.2/jquery.min.js"></script>\\n<!-- Include all compiled plugins (below), or include individual files as needed -->\\n<script src="//netdna.bootstrapcdn.com/bootstrap/3.0.0-rc1/js/bootstrap.min.js"></script>\\n\\n</body>\\n</html>\\n\\n\\n\\n\\n\', escape=False)'
p7
sS'snapshot'
p8
(dp9
S'exception'
p10
(dp11
S'__module__'
p12
S"'gluon.rocket'"
p13
sS'__getslice__'
p14
S"<method-wrapper '__getslice__' of SocketTimeout object>"
p15
sS'__str__'
p16
S"<method-wrapper '__str__' of SocketTimeout object>"
p17
sS'__reduce__'
p18
S'<built-in method __reduce__ of SocketTimeout object>'
p19
sS'__dict__'
p20
S'{}'
p21
sS'__sizeof__'
p22
S'<built-in method __sizeof__ of SocketTimeout object>'
p23
sS'__weakref__'
p24
S'None'
p25
sS'__init__'
p26
S"<method-wrapper '__init__' of SocketTimeout object>"
p27
sS'__setattr__'
p28
S"<method-wrapper '__setattr__' of SocketTimeout object>"
p29
sS'__reduce_ex__'
p30
S'<built-in method __reduce_ex__ of SocketTimeout object>'
p31
sS'__new__'
p32
S'<built-in method __new__ of type object>'
p33
sS'__format__'
p34
S'<built-in method __format__ of SocketTimeout object>'
p35
sS'__class__'
p36
S"<class 'gluon.rocket.SocketTimeout'>"
p37
sS'__doc__'
p38
S"'Exception for when a socket times out between requests.'"
p39
sS'__getitem__'
p40
S"<method-wrapper '__getitem__' of SocketTimeout object>"
p41
sS'__setstate__'
p42
S'<built-in method __setstate__ of SocketTimeout object>'
p43
sS'__getattribute__'
p44
S"<method-wrapper '__getattribute__' of SocketTimeout object>"
p45
sS'args'
p46
S"('Socket timed out before request.',)"
p47
sS'__subclasshook__'
p48
S'<built-in method __subclasshook__ of type object>'
p49
sS'__unicode__'
p50
S'<built-in method __unicode__ of SocketTimeout object>'
p51
sS'__delattr__'
p52
S"<method-wrapper '__delattr__' of SocketTimeout object>"
p53
sS'__repr__'
p54
S"<method-wrapper '__repr__' of SocketTimeout object>"
p55
sS'__hash__'
p56
S"<method-wrapper '__hash__' of SocketTimeout object>"
p57
ssS'evalue'
p58
S'Socket timed out before request.'
p59
sS'frames'
p60
(lp61
(dp62
S'file'
p63
S'/Users/user1/Dropbox/Everything Programming/Web Development/web2py/bookAppDevelopmental/gluon/rocket.py'
p64
sS'dump'
p65
(dp66
S'self'
p67
S'<WSGIWorker(Thread-10, started daemon 4409204736)>'
p68
sS'conn'
p69
S'<gluon.rocket.Connection object>'
p70
sS'self.run_app'
p71
S'<bound method WSGIWorker.run_app of <WSGIWorker(Thread-10, started daemon 4409204736)>>'
p72
ssS'lnum'
p73
I1337
sS'lines'
p74
(dp75
I1332
S'            # Enter connection serve loop'
p76
sI1333
S'            while True:'
p77
sI1334
S'                if __debug__:'
p78
sI1335
S"                    self.err_log.debug('Serving a request')"
p79
sI1336
S'                try:'
p80
sI1337
S'                    self.run_app(conn)'
p81
sI1338
S'                except:'
p82
sI1339
S'                    exc = sys.exc_info()'
p83
sI1340
S'                    handled = self._handleError(*exc)'
p84
sI1341
S'                    if handled:'
p85
ssS'call'
p86
S'(self=<WSGIWorker(Thread-10, started daemon 4409204736)>)'
p87
sS'func'
p88
S'run'
p89
sa(dp90
g63
S'/Users/user1/Dropbox/Everything Programming/Web Development/web2py/bookAppDevelopmental/gluon/rocket.py'
p91
sg65
(dp92
S'self'
p93
S'<WSGIWorker(Thread-10, started daemon 4409204736)>'
p94
sS'self.environ'
p95
S"{'HTTP_ACCEPT': 'text/html,application/xhtml+xml,application/xml;q=0.9,*/*;q=0.8', 'HTTP_ACCEPT_ENCODING': 'gzip, deflate', 'HTTP_ACCEPT_LANGUAGE': 'en-US,en;q=0.5', 'HTTP_CONNECTION': 'keep-alive', 'HTTP_COOKIE': 'session_id_admin=127.0.0.1-53b568bd-40f8-495d-af...23=127.0.0.1-67aa5ddf-17fa-4bbc-9b4e-6bb409ab1172', 'HTTP_HOST': '127.0.0.1:8000', 'HTTP_USER_AGENT': 'Mozilla/5.0 (Macintosh; Intel Mac OS X 10.8; rv:22.0) Gecko/20100101 Firefox/22.0', 'PATH_INFO': '/bookApp/default/index', 'QUERY_STRING': '', 'REMOTE_ADDR': '127.0.0.1', ...}"
p96
sS'sock_file'
p97
S'<socket._fileobject object>'
p98
sS'environ'
p99
S'undefined'
p100
sS'self.build_environ'
p101
S'<bound method WSGIWorker.build_environ of <WSGIWorker(Thread-10, started daemon 4409204736)>>'
p102
sS'conn'
p103
S'<gluon.rocket.Connection object>'
p104
ssg73
I1830
sg74
(dp105
I1825
S'        else:'
p106
sI1826
S'            sock_file = conn.makefile(BUF_SIZE)'
p107
sI1827
S''
sI1828
S'        try:'
p108
sI1829
S'            # Read the headers and build our WSGI environment'
p109
sI1830
S'            self.environ = environ = self.build_environ(sock_file, conn)'
p110
sI1831
S''
sI1832
S'            # Handle 100 Continue'
p111
sI1833
S"            if environ.get('HTTP_EXPECT', '') == '100-continue':"
p112
sI1834
S"                res = environ['SERVER_PROTOCOL'] + ' 100 Continue\\r\\n\\r\\n'"
p113
ssg86
S'(self=<WSGIWorker(Thread-10, started daemon 4409204736)>, conn=<gluon.rocket.Connection object>)'
p114
sg88
S'run_app'
p115
sa(dp116
g63
S'/Users/user1/Dropbox/Everything Programming/Web Development/web2py/bookAppDevelopmental/gluon/rocket.py'
p117
sg65
(dp118
S'sock_file'
p119
S'<socket._fileobject object>'
p120
sS'self.read_request_line'
p121
S'<bound method WSGIWorker.read_request_line of <WSGIWorker(Thread-10, started daemon 4409204736)>>'
p122
sS'self'
p123
S'<WSGIWorker(Thread-10, started daemon 4409204736)>'
p124
sS'request'
p125
g100
ssg73
I1650
sg74
(dp126
I1645
S'                                      "wsgiorg.futures": executor.futures})'
p127
sI1646
S''
sI1647
S'    def build_environ(self, sock_file, conn):'
p128
sI1648
S'        """ Build the execution environment. """'
p129
sI1649
S'        # Grab the request line'
p130
sI1650
S'        request = self.read_request_line(sock_file)'
p131
sI1651
S''
sI1652
S'        # Copy the Base Environment'
p132
sI1653
S'        environ = self.base_environ.copy()'
p133
sI1654
S''
ssg86
S'(self=<WSGIWorker(Thread-10, started daemon 4409204736)>, sock_file=<socket._fileobject object>, conn=<gluon.rocket.Connection object>)'
p134
sg88
S'build_environ'
p135
sa(dp136
g63
S'/Users/user1/Dropbox/Everything Programming/Web Development/web2py/bookAppDevelopmental/gluon/rocket.py'
p137
sg65
(dp138
S'global SocketTimeout'
p139
S"<class 'gluon.rocket.SocketTimeout'>"
p140
ssg73
I1401
sg74
(dp141
I1396
S''
sI1397
S'                d = sock_file.readline()'
p142
sI1398
S'                if PY3K:'
p143
sI1399
S"                    d = d.decode('ISO-8859-1')"
p144
sI1400
S'        except socket.timeout:'
p145
sI1401
S"            raise SocketTimeout('Socket timed out before request.')"
p146
sI1402
S'        except TypeError:'
p147
sI1403
S'            raise SocketClosed('
p148
sI1404
S"                'SSL bug caused closure of socket.  See '"
p149
sI1405
S'                \'"https://groups.google.com/d/topic/web2py/P_Gw0JxWzCs".\')'
p150
ssg86
S'(self=<WSGIWorker(Thread-10, started daemon 4409204736)>, sock_file=<socket._fileobject object>)'
p151
sg88
S'read_request_line'
p152
sasS'pyver'
p153
S'Python 2.7.2: /System/Library/Frameworks/Python.framework/Versions/2.7/Resources/Python.app/Contents/MacOS/Python (prefix: /System/Library/Frameworks/Python.framework/Versions/2.7)'
p154
sS'etype'
p155
S"<class 'gluon.rocket.SocketTimeout'>"
p156
sS'date'
p157
S'Sun Aug 11 14:21:04 2013'
p158
sS'locals'
p159
(dp160
S'sock_file'
p161
S'<socket._fileobject object>'
p162
sS'self'
p163
S'<WSGIWorker(Thread-10, started daemon 4409204736)>'
p164
sssS'traceback'
p165
S'Traceback (most recent call last):\n  File "/Users/user1/Dropbox/Everything Programming/Web Development/web2py/bookAppDevelopmental/gluon/rocket.py", line 1337, in run\n    self.run_app(conn)\n  File "/Users/user1/Dropbox/Everything Programming/Web Development/web2py/bookAppDevelopmental/gluon/rocket.py", line 1830, in run_app\n    self.environ = environ = self.build_environ(sock_file, conn)\n  File "/Users/user1/Dropbox/Everything Programming/Web Development/web2py/bookAppDevelopmental/gluon/rocket.py", line 1650, in build_environ\n    request = self.read_request_line(sock_file)\n  File "/Users/user1/Dropbox/Everything Programming/Web Development/web2py/bookAppDevelopmental/gluon/rocket.py", line 1401, in read_request_line\n    raise SocketTimeout(\'Socket timed out before request.\')\nSocketTimeout: Socket timed out before request.\n'
p166
s.